; Function Attrs: mustprogress uwtable
define hidden noundef range(i32 0, -1) i32 @_ZNK3fmt3v1113buffered_file10descriptorEv(ptr noundef nonnull readonly align 8 captures(none) dereferenceable(8) %0) local_unnamed_addr #5 align 2 personality ptr @__gxx_personality_v0 {
  %2 = load ptr, ptr %0, align 8, !tbaa !4
  %3 = tail call i32 @fileno(ptr noundef %2) #32
  %4 = icmp eq i32 %3, -1
  br i1 %4, label %5, label %12

5:                                                ; preds = %1
  %6 = tail call ptr @__cxa_allocate_exception(i64 32) #32
  %7 = tail call ptr @__errno_location() #31
  %8 = load i32, ptr %7, align 4, !tbaa !10
  invoke void @_ZN3fmt3v1112system_errorIJEEESt12system_erroriNS0_7fstringIJDpT_EE1tEDpOS4_(ptr dead_on_unwind writable sret(%"class.std::system_error") align 8 %6, i32 noundef %8, ptr nonnull @.str.47, i64 26)
          to label %9 unwind label %10

9:                                                ; preds = %5
  tail call void @__cxa_throw(ptr %6, ptr nonnull @_ZTISt12system_error, ptr nonnull @_ZNSt12system_errorD1Ev) #35
  unreachable

10:                                               ; preds = %5
  %11 = landingpad { ptr, i32 }
          cleanup
  tail call void @__cxa_free_exception(ptr %6) #32
  resume { ptr, i32 } %11

12:                                               ; preds = %1
  ret i32 %3
}